target datalayout = "e-m:e-p270:32:32-p271:32:32-p272:64:64-i64:64-i128:128-f80:128-n8:16:32:64-S128"
target triple = "x86_64-unknown-linux-gnu"

%"class.rocksdb::Slice" = type { ptr, i64 }
%"class.std::__cxx11::basic_string" = type { %"struct.std::__cxx11::basic_string<char>::_Alloc_hider", i64, %union.anon }
%"struct.std::__cxx11::basic_string<char>::_Alloc_hider" = type { ptr }
%union.anon = type { i64, [8 x i8] }
%"class.rocksdb::(anonymous namespace)::SkipListRep" = type { %"class.rocksdb::MemTableRep", %"class.rocksdb::InlineSkipList", ptr, ptr, i64 }
%"class.rocksdb::MemTableRep" = type { ptr, ptr }
%"class.rocksdb::InlineSkipList" = type { i16, i16, i32, ptr, ptr, ptr, %"struct.std::atomic", ptr }
%"struct.std::atomic" = type { %"struct.std::__atomic_base" }
%"struct.std::__atomic_base" = type { i32 }
%"struct.rocksdb::InlineSkipList<const rocksdb::MemTableRep::KeyComparator &>::Node" = type { [1 x %"struct.std::atomic.29"] }
%"struct.std::atomic.29" = type { %"struct.std::__atomic_base.30" }
%"struct.std::__atomic_base.30" = type { ptr }

; Function Attrs: mustprogress nounwind uwtable
define linkonce_odr noundef ptr @_ZNKSt6atomicIPN7rocksdb14InlineSkipListIRKNS0_11MemTableRep13KeyComparatorEE4NodeEE4loadESt12memory_order(ptr noundef nonnull align 8 dereferenceable(8) %this, i32 noundef %__m) #1 comdat align 2 {
entry:
  %this.addr.i = alloca ptr, align 8
  %__m.addr.i = alloca i32, align 4
  %__b.i = alloca i32, align 4
  %atomic-temp.i = alloca ptr, align 8
  %this.addr = alloca ptr, align 8
  %__m.addr = alloca i32, align 4
  store ptr %this, ptr %this.addr, align 8
  store i32 %__m, ptr %__m.addr, align 4
  %this1 = load ptr, ptr %this.addr, align 8
  %_M_b = getelementptr inbounds %"struct.std::atomic.29", ptr %this1, i32 0, i32 0
  %0 = load i32, ptr %__m.addr, align 4
  store ptr %_M_b, ptr %this.addr.i, align 8
  store i32 %0, ptr %__m.addr.i, align 4
  %this1.i = load ptr, ptr %this.addr.i, align 8
  %1 = load i32, ptr %__m.addr.i, align 4
  %call.i = call noundef i32 @_ZStanSt12memory_orderSt23__memory_order_modifier(i32 noundef %1, i32 noundef 65535)
  store i32 %call.i, ptr %__b.i, align 4
  %2 = load i32, ptr %__m.addr.i, align 4
  switch i32 %2, label %monotonic.i [
    i32 1, label %acquire.i
    i32 2, label %acquire.i
    i32 5, label %seqcst.i
  ]

monotonic.i:                                      ; preds = %entry
  %3 = load atomic i64, ptr %this1.i monotonic, align 8
  store i64 %3, ptr %atomic-temp.i, align 8
  br label %_ZNKSt13__atomic_baseIPN7rocksdb14InlineSkipListIRKNS0_11MemTableRep13KeyComparatorEE4NodeEE4loadESt12memory_order.exit

acquire.i:                                        ; preds = %entry, %entry
  %4 = load atomic i64, ptr %this1.i acquire, align 8
  store i64 %4, ptr %atomic-temp.i, align 8
  br label %_ZNKSt13__atomic_baseIPN7rocksdb14InlineSkipListIRKNS0_11MemTableRep13KeyComparatorEE4NodeEE4loadESt12memory_order.exit

seqcst.i:                                         ; preds = %entry
  %5 = load atomic i64, ptr %this1.i seq_cst, align 8
  store i64 %5, ptr %atomic-temp.i, align 8
  br label %_ZNKSt13__atomic_baseIPN7rocksdb14InlineSkipListIRKNS0_11MemTableRep13KeyComparatorEE4NodeEE4loadESt12memory_order.exit

_ZNKSt13__atomic_baseIPN7rocksdb14InlineSkipListIRKNS0_11MemTableRep13KeyComparatorEE4NodeEE4loadESt12memory_order.exit: ; preds = %seqcst.i, %acquire.i, %monotonic.i
  %6 = load ptr, ptr %atomic-temp.i, align 8
  ret ptr %6
}

; Function Attrs: mustprogress nounwind uwtable
define linkonce_odr noundef i32 @_ZStanSt12memory_orderSt23__memory_order_modifier(i32 noundef %__m, i32 noundef %__mod) #1 comdat {
entry:
  %__m.addr = alloca i32, align 4
  %__mod.addr = alloca i32, align 4
  store i32 %__m, ptr %__m.addr, align 4
  store i32 %__mod, ptr %__mod.addr, align 4
  %0 = load i32, ptr %__m.addr, align 4
  %1 = load i32, ptr %__mod.addr, align 4
  %and = and i32 %0, %1
  ret i32 %and
}

; Function Attrs: mustprogress nounwind uwtable
define linkonce_odr noundef ptr @_ZNK7rocksdb14InlineSkipListIRKNS_11MemTableRep13KeyComparatorEE4Node3KeyEv(ptr noundef nonnull align 8 dereferenceable(8) %this) #1 comdat align 2 {
entry:
  %this.addr = alloca ptr, align 8
  store ptr %this, ptr %this.addr, align 8
  %this1 = load ptr, ptr %this.addr, align 8
  %next_ = getelementptr inbounds %"struct.rocksdb::InlineSkipList<const rocksdb::MemTableRep::KeyComparator &>::Node", ptr %this1, i32 0, i32 0
  %arrayidx = getelementptr inbounds [1 x %"struct.std::atomic.29"], ptr %next_, i64 0, i64 1
  ret ptr %arrayidx
}

; Function Attrs: mustprogress nounwind uwtable
define linkonce_odr noundef ptr @_ZN7rocksdb14InlineSkipListIRKNS_11MemTableRep13KeyComparatorEE4Node4NextEi(ptr noundef nonnull align 8 dereferenceable(8) %this, i32 noundef %n) #1 comdat align 2 {
entry:
  %this.addr = alloca ptr, align 8
  %n.addr = alloca i32, align 4
  store ptr %this, ptr %this.addr, align 8
  store i32 %n, ptr %n.addr, align 4
  %this1 = load ptr, ptr %this.addr, align 8
  %next_ = getelementptr inbounds %"struct.rocksdb::InlineSkipList<const rocksdb::MemTableRep::KeyComparator &>::Node", ptr %this1, i32 0, i32 0
  %arrayidx = getelementptr inbounds [1 x %"struct.std::atomic.29"], ptr %next_, i64 0, i64 0
  %0 = load i32, ptr %n.addr, align 4
  %idx.ext = sext i32 %0 to i64
  %idx.neg = sub i64 0, %idx.ext
  %add.ptr = getelementptr inbounds %"struct.std::atomic.29", ptr %arrayidx, i64 %idx.neg
  %call = call noundef ptr @_ZNKSt6atomicIPN7rocksdb14InlineSkipListIRKNS0_11MemTableRep13KeyComparatorEE4NodeEE4loadESt12memory_order(ptr noundef nonnull align 8 dereferenceable(8) %add.ptr, i32 noundef 2) #3
  ret ptr %call
}

; Function Attrs: mustprogress nounwind uwtable
define linkonce_odr noundef i32 @_ZNK7rocksdb14InlineSkipListIRKNS_11MemTableRep13KeyComparatorEE12GetMaxHeightEv(ptr noundef nonnull align 8 dereferenceable(48) %this) #1 comdat align 2 {
entry:
  %this.addr.i = alloca ptr, align 8
  %__m.addr.i = alloca i32, align 4
  %__b.i = alloca i32, align 4
  %atomic-temp.i = alloca i32, align 4
  %this.addr = alloca ptr, align 8
  store ptr %this, ptr %this.addr, align 8
  %this1 = load ptr, ptr %this.addr, align 8
  %max_height_ = getelementptr inbounds %"class.rocksdb::InlineSkipList", ptr %this1, i32 0, i32 6
  store ptr %max_height_, ptr %this.addr.i, align 8
  store i32 0, ptr %__m.addr.i, align 4
  %this1.i = load ptr, ptr %this.addr.i, align 8
  %0 = load i32, ptr %__m.addr.i, align 4
  %call.i = call noundef i32 @_ZStanSt12memory_orderSt23__memory_order_modifier(i32 noundef %0, i32 noundef 65535)
  store i32 %call.i, ptr %__b.i, align 4
  %1 = load i32, ptr %__m.addr.i, align 4
  switch i32 %1, label %monotonic.i [
    i32 1, label %acquire.i
    i32 2, label %acquire.i
    i32 5, label %seqcst.i
  ]

monotonic.i:                                      ; preds = %entry
  %2 = load atomic i32, ptr %this1.i monotonic, align 4
  store i32 %2, ptr %atomic-temp.i, align 4
  br label %_ZNKSt13__atomic_baseIiE4loadESt12memory_order.exit

acquire.i:                                        ; preds = %entry, %entry
  %3 = load atomic i32, ptr %this1.i acquire, align 4
  store i32 %3, ptr %atomic-temp.i, align 4
  br label %_ZNKSt13__atomic_baseIiE4loadESt12memory_order.exit

seqcst.i:                                         ; preds = %entry
  %4 = load atomic i32, ptr %this1.i seq_cst, align 4
  store i32 %4, ptr %atomic-temp.i, align 4
  br label %_ZNKSt13__atomic_baseIiE4loadESt12memory_order.exit

_ZNKSt13__atomic_baseIiE4loadESt12memory_order.exit: ; preds = %seqcst.i, %acquire.i, %monotonic.i
  %5 = load i32, ptr %atomic-temp.i, align 4
  ret i32 %5
}

; Function Attrs: mustprogress uwtable
define linkonce_odr noundef i64 @_ZNK7rocksdb14InlineSkipListIRKNS_11MemTableRep13KeyComparatorEE13EstimateCountEPKc(ptr noundef nonnull align 8 dereferenceable(48) %this, ptr noundef %key) #0 comdat align 2 {
entry:
  %this.addr = alloca ptr, align 8
  %key.addr = alloca ptr, align 8
  %count = alloca i64, align 8
  %x = alloca ptr, align 8
  %level = alloca i32, align 4
  %key_decoded = alloca %"class.rocksdb::Slice", align 8
  %next = alloca ptr, align 8
  store ptr %this, ptr %this.addr, align 8
  store ptr %key, ptr %key.addr, align 8
  %this1 = load ptr, ptr %this.addr, align 8
  store i64 0, ptr %count, align 8
  %head_ = getelementptr inbounds %"class.rocksdb::InlineSkipList", ptr %this1, i32 0, i32 5
  %0 = load ptr, ptr %head_, align 8
  store ptr %0, ptr %x, align 8
  %call = call noundef i32 @_ZNK7rocksdb14InlineSkipListIRKNS_11MemTableRep13KeyComparatorEE12GetMaxHeightEv(ptr noundef nonnull align 8 dereferenceable(48) %this1)
  %sub = sub nsw i32 %call, 1
  store i32 %sub, ptr %level, align 4
  %compare_ = getelementptr inbounds %"class.rocksdb::InlineSkipList", ptr %this1, i32 0, i32 4
  %1 = load ptr, ptr %compare_, align 8
  %2 = load ptr, ptr %key.addr, align 8
  %vtable = load ptr, ptr %1, align 8
  %vfn = getelementptr inbounds ptr, ptr %vtable, i64 0
  %3 = load ptr, ptr %vfn, align 8
  %call2 = call { ptr, i64 } %3(ptr noundef nonnull align 8 dereferenceable(8) %1, ptr noundef %2)
  %4 = getelementptr inbounds { ptr, i64 }, ptr %key_decoded, i32 0, i32 0
  %5 = extractvalue { ptr, i64 } %call2, 0
  store ptr %5, ptr %4, align 8
  %6 = getelementptr inbounds { ptr, i64 }, ptr %key_decoded, i32 0, i32 1
  %7 = extractvalue { ptr, i64 } %call2, 1
  store i64 %7, ptr %6, align 8
  br label %while.body

while.body:                                       ; preds = %if.end17, %entry
  %8 = load ptr, ptr %x, align 8
  %9 = load i32, ptr %level, align 4
  %call3 = call noundef ptr @_ZN7rocksdb14InlineSkipListIRKNS_11MemTableRep13KeyComparatorEE4Node4NextEi(ptr noundef nonnull align 8 dereferenceable(8) %8, i32 noundef %9)
  store ptr %call3, ptr %next, align 8
  %10 = load ptr, ptr %next, align 8
  %cmp = icmp ne ptr %10, null
  br i1 %cmp, label %if.then, label %if.end

if.then:                                          ; preds = %while.body
  %11 = load ptr, ptr %next, align 8
  %12 = load i32, ptr %level, align 4
  %call4 = call noundef ptr @_ZN7rocksdb14InlineSkipListIRKNS_11MemTableRep13KeyComparatorEE4Node4NextEi(ptr noundef nonnull align 8 dereferenceable(8) %11, i32 noundef %12)
  call void @llvm.prefetch.p0(ptr %call4, i32 0, i32 1, i32 1)
  br label %if.end

if.end:                                           ; preds = %if.then, %while.body
  %13 = load ptr, ptr %next, align 8
  %cmp5 = icmp eq ptr %13, null
  br i1 %cmp5, label %if.then12, label %lor.lhs.false

lor.lhs.false:                                    ; preds = %if.end
  %compare_6 = getelementptr inbounds %"class.rocksdb::InlineSkipList", ptr %this1, i32 0, i32 4
  %14 = load ptr, ptr %compare_6, align 8
  %15 = load ptr, ptr %next, align 8
  %call7 = call noundef ptr @_ZNK7rocksdb14InlineSkipListIRKNS_11MemTableRep13KeyComparatorEE4Node3KeyEv(ptr noundef nonnull align 8 dereferenceable(8) %15)
  %vtable8 = load ptr, ptr %14, align 8
  %vfn9 = getelementptr inbounds ptr, ptr %vtable8, i64 2
  %16 = load ptr, ptr %vfn9, align 8
  %call10 = call noundef i32 %16(ptr noundef nonnull align 8 dereferenceable(8) %14, ptr noundef %call7, ptr noundef nonnull align 8 dereferenceable(16) %key_decoded)
  %cmp11 = icmp sge i32 %call10, 0
  br i1 %cmp11, label %if.then12, label %if.else16

if.then12:                                        ; preds = %lor.lhs.false, %if.end
  %17 = load i32, ptr %level, align 4
  %cmp13 = icmp eq i32 %17, 0
  br i1 %cmp13, label %if.then14, label %if.else

if.then14:                                        ; preds = %if.then12
  %18 = load i64, ptr %count, align 8
  ret i64 %18

if.else:                                          ; preds = %if.then12
  %kBranching_ = getelementptr inbounds %"class.rocksdb::InlineSkipList", ptr %this1, i32 0, i32 1
  %19 = load i16, ptr %kBranching_, align 2
  %conv = zext i16 %19 to i64
  %20 = load i64, ptr %count, align 8
  %mul = mul i64 %20, %conv
  store i64 %mul, ptr %count, align 8
  %21 = load i32, ptr %level, align 4
  %dec = add nsw i32 %21, -1
  store i32 %dec, ptr %level, align 4
  br label %if.end15

if.end15:                                         ; preds = %if.else
  br label %if.end17

if.else16:                                        ; preds = %lor.lhs.false
  %22 = load ptr, ptr %next, align 8
  store ptr %22, ptr %x, align 8
  %23 = load i64, ptr %count, align 8
  %inc = add i64 %23, 1
  store i64 %inc, ptr %count, align 8
  br label %if.end17

if.end17:                                         ; preds = %if.else16, %if.end15
  br label %while.body, !llvm.loop !39
}

; Function Attrs: mustprogress uwtable
define internal noundef i64 @_ZN7rocksdb12_GLOBAL__N_111SkipListRep21ApproximateNumEntriesERKNS_5SliceES4_(ptr noundef nonnull align 8 dereferenceable(88) %this, ptr noundef nonnull align 8 dereferenceable(16) %start_ikey, ptr noundef nonnull align 8 dereferenceable(16) %end_ikey) unnamed_addr #0 align 2 personality ptr @__gxx_personality_v0 {
entry:
  %this.addr = alloca ptr, align 8
  %start_ikey.addr = alloca ptr, align 8
  %end_ikey.addr = alloca ptr, align 8
  %tmp = alloca %"class.std::__cxx11::basic_string", align 8
  %start_count = alloca i64, align 8
  %exn.slot = alloca ptr, align 8
  %ehselector.slot = alloca i32, align 4
  %end_count = alloca i64, align 8
  store ptr %this, ptr %this.addr, align 8
  store ptr %start_ikey, ptr %start_ikey.addr, align 8
  store ptr %end_ikey, ptr %end_ikey.addr, align 8
  %this1 = load ptr, ptr %this.addr, align 8
  call void @_ZNSt7__cxx1112basic_stringIcSt11char_traitsIcESaIcEEC1Ev(ptr noundef nonnull align 8 dereferenceable(32) %tmp) #3
  %skip_list_ = getelementptr inbounds %"class.rocksdb::(anonymous namespace)::SkipListRep", ptr %this1, i32 0, i32 1
  %0 = load ptr, ptr %start_ikey.addr, align 8
  %call = invoke noundef ptr @_ZN7rocksdb9EncodeKeyEPNSt7__cxx1112basic_stringIcSt11char_traitsIcESaIcEEERKNS_5SliceE(ptr noundef %tmp, ptr noundef nonnull align 8 dereferenceable(16) %0)
          to label %invoke.cont unwind label %lpad

invoke.cont:                                      ; preds = %entry
  %call3 = invoke noundef i64 @_ZNK7rocksdb14InlineSkipListIRKNS_11MemTableRep13KeyComparatorEE13EstimateCountEPKc(ptr noundef nonnull align 8 dereferenceable(48) %skip_list_, ptr noundef %call)
          to label %invoke.cont2 unwind label %lpad

invoke.cont2:                                     ; preds = %invoke.cont
  store i64 %call3, ptr %start_count, align 8
  %skip_list_4 = getelementptr inbounds %"class.rocksdb::(anonymous namespace)::SkipListRep", ptr %this1, i32 0, i32 1
  %1 = load ptr, ptr %end_ikey.addr, align 8
  %call6 = invoke noundef ptr @_ZN7rocksdb9EncodeKeyEPNSt7__cxx1112basic_stringIcSt11char_traitsIcESaIcEEERKNS_5SliceE(ptr noundef %tmp, ptr noundef nonnull align 8 dereferenceable(16) %1)
          to label %invoke.cont5 unwind label %lpad

invoke.cont5:                                     ; preds = %invoke.cont2
  %call8 = invoke noundef i64 @_ZNK7rocksdb14InlineSkipListIRKNS_11MemTableRep13KeyComparatorEE13EstimateCountEPKc(ptr noundef nonnull align 8 dereferenceable(48) %skip_list_4, ptr noundef %call6)
          to label %invoke.cont7 unwind label %lpad

invoke.cont7:                                     ; preds = %invoke.cont5
  store i64 %call8, ptr %end_count, align 8
  %2 = load i64, ptr %end_count, align 8
  %3 = load i64, ptr %start_count, align 8
  %cmp = icmp uge i64 %2, %3
  br i1 %cmp, label %cond.true, label %cond.false

cond.true:                                        ; preds = %invoke.cont7
  %4 = load i64, ptr %end_count, align 8
  %5 = load i64, ptr %start_count, align 8
  %sub = sub i64 %4, %5
  br label %cond.end

cond.false:                                       ; preds = %invoke.cont7
  br label %cond.end

cond.end:                                         ; preds = %cond.false, %cond.true
  %cond = phi i64 [ %sub, %cond.true ], [ 0, %cond.false ]
  call void @_ZNSt7__cxx1112basic_stringIcSt11char_traitsIcESaIcEED1Ev(ptr noundef nonnull align 8 dereferenceable(32) %tmp) #3
  ret i64 %cond

lpad:                                             ; preds = %invoke.cont5, %invoke.cont2, %invoke.cont, %entry
  %6 = landingpad { ptr, i32 }
          cleanup
  %7 = extractvalue { ptr, i32 } %6, 0
  store ptr %7, ptr %exn.slot, align 8
  %8 = extractvalue { ptr, i32 } %6, 1
  store i32 %8, ptr %ehselector.slot, align 4
  call void @_ZNSt7__cxx1112basic_stringIcSt11char_traitsIcESaIcEED1Ev(ptr noundef nonnull align 8 dereferenceable(32) %tmp) #3
  br label %eh.resume

eh.resume:                                        ; preds = %lpad
  %exn = load ptr, ptr %exn.slot, align 8
  %sel = load i32, ptr %ehselector.slot, align 4
  %lpad.val = insertvalue { ptr, i32 } poison, ptr %exn, 0
  %lpad.val9 = insertvalue { ptr, i32 } %lpad.val, i32 %sel, 1
  resume { ptr, i32 } %lpad.val9
}