; Function Attrs: mustprogress uwtable
define internal noundef i64 @_ZN7rocksdb12_GLOBAL__N_111SkipListRep21ApproximateNumEntriesERKNS_5SliceES4_(ptr nocapture noundef nonnull readonly align 8 dereferenceable(88) %this, ptr noundef nonnull align 8 dereferenceable(16) %start_ikey, ptr noundef nonnull align 8 dereferenceable(16) %end_ikey) unnamed_addr #3 align 2 personality ptr @__gxx_personality_v0 {
entry:
  %key_decoded.i5 = alloca %"class.rocksdb::Slice", align 8
  %key_decoded.i = alloca %"class.rocksdb::Slice", align 8
  %tmp = alloca %"class.std::__cxx11::basic_string", align 8
  call void @_ZNSt7__cxx1112basic_stringIcSt11char_traitsIcESaIcEEC1Ev(ptr noundef nonnull align 8 dereferenceable(32) %tmp) #23
  %call = invoke noundef ptr @_ZN7rocksdb9EncodeKeyEPNSt7__cxx1112basic_stringIcSt11char_traitsIcESaIcEEERKNS_5SliceE(ptr noundef nonnull %tmp, ptr noundef nonnull align 8 dereferenceable(16) %start_ikey)
          to label %invoke.cont unwind label %lpad.loopexit.split-lp.loopexit.split-lp

invoke.cont:                                      ; preds = %entry
  call void @llvm.lifetime.start.p0(i64 16, ptr nonnull %key_decoded.i)
  %head_.i = getelementptr inbounds i8, ptr %this, i64 40
  %0 = load ptr, ptr %head_.i, align 8
  %max_height_.i.i = getelementptr inbounds i8, ptr %this, i64 48
  %1 = load atomic i32, ptr %max_height_.i.i monotonic, align 8
  %compare_.i = getelementptr inbounds i8, ptr %this, i64 32
  %2 = load ptr, ptr %compare_.i, align 8
  %vtable.i = load ptr, ptr %2, align 8
  %3 = load ptr, ptr %vtable.i, align 8
  %call2.i3 = invoke { ptr, i64 } %3(ptr noundef nonnull align 8 dereferenceable(8) %2, ptr noundef %call)
          to label %call2.i.noexc unwind label %lpad.loopexit.split-lp.loopexit.split-lp

call2.i.noexc:                                    ; preds = %invoke.cont
  %sub.i = add nsw i32 %1, -1
  %4 = extractvalue { ptr, i64 } %call2.i3, 0
  store ptr %4, ptr %key_decoded.i, align 8
  %5 = getelementptr inbounds i8, ptr %key_decoded.i, i64 8
  %6 = extractvalue { ptr, i64 } %call2.i3, 1
  store i64 %6, ptr %5, align 8
  %kBranching_.i = getelementptr inbounds i8, ptr %this, i64 18
  br label %while.body.i.outer

while.body.i.outer:                               ; preds = %if.else16.i, %call2.i.noexc
  %x.0.i.ph = phi ptr [ %atomic-temp.i.0.i.i.i, %if.else16.i ], [ %0, %call2.i.noexc ]
  %level.0.i.ph = phi i32 [ %level.0.i, %if.else16.i ], [ %sub.i, %call2.i.noexc ]
  %count.0.i.ph = phi i64 [ %inc.i, %if.else16.i ], [ 0, %call2.i.noexc ]
  br label %while.body.i

while.body.i:                                     ; preds = %while.body.i.outer, %if.else.i
  %level.0.i = phi i32 [ %dec.i, %if.else.i ], [ %level.0.i.ph, %while.body.i.outer ]
  %count.0.i = phi i64 [ %mul.i, %if.else.i ], [ %count.0.i.ph, %while.body.i.outer ]
  %idx.ext.i.i = sext i32 %level.0.i to i64
  %idx.neg.i.i = sub nsw i64 0, %idx.ext.i.i
  %add.ptr.i.i = getelementptr inbounds %"struct.std::atomic.29", ptr %x.0.i.ph, i64 %idx.neg.i.i
  %7 = load atomic i64, ptr %add.ptr.i.i acquire, align 8
  %atomic-temp.i.0.i.i.i = inttoptr i64 %7 to ptr
  %cond.i = icmp eq i64 %7, 0
  br i1 %cond.i, label %if.then12.i, label %if.then.i

if.then.i:                                        ; preds = %while.body.i
  %add.ptr.i12.i = getelementptr inbounds %"struct.std::atomic.29", ptr %atomic-temp.i.0.i.i.i, i64 %idx.neg.i.i
  %8 = load atomic i64, ptr %add.ptr.i12.i acquire, align 8
  %atomic-temp.i.0.i.i13.i = inttoptr i64 %8 to ptr
  call void @llvm.prefetch.p0(ptr %atomic-temp.i.0.i.i13.i, i32 0, i32 1, i32 1)
  %9 = load ptr, ptr %compare_.i, align 8
  %arrayidx.i.i = getelementptr inbounds i8, ptr %atomic-temp.i.0.i.i.i, i64 8
  %vtable8.i = load ptr, ptr %9, align 8
  %vfn9.i = getelementptr inbounds i8, ptr %vtable8.i, i64 16
  %10 = load ptr, ptr %vfn9.i, align 8
  %call10.i4 = invoke noundef i32 %10(ptr noundef nonnull align 8 dereferenceable(8) %9, ptr noundef nonnull %arrayidx.i.i, ptr noundef nonnull align 8 dereferenceable(16) %key_decoded.i)
          to label %call10.i.noexc unwind label %lpad.loopexit.split-lp.loopexit

call10.i.noexc:                                   ; preds = %if.then.i
  %cmp11.i = icmp sgt i32 %call10.i4, -1
  br i1 %cmp11.i, label %if.then12.i, label %if.else16.i

if.then12.i:                                      ; preds = %call10.i.noexc, %while.body.i
  %cmp13.i = icmp eq i32 %level.0.i, 0
  br i1 %cmp13.i, label %invoke.cont2, label %if.else.i

if.else.i:                                        ; preds = %if.then12.i
  %11 = load i16, ptr %kBranching_.i, align 2
  %conv.i = zext i16 %11 to i64
  %mul.i = mul i64 %count.0.i, %conv.i
  %dec.i = add nsw i32 %level.0.i, -1
  br label %while.body.i, !llvm.loop !12

if.else16.i:                                      ; preds = %call10.i.noexc
  %inc.i = add i64 %count.0.i, 1
  br label %while.body.i.outer, !llvm.loop !12

invoke.cont2:                                     ; preds = %if.then12.i
  call void @llvm.lifetime.end.p0(i64 16, ptr nonnull %key_decoded.i)
  %call6 = invoke noundef ptr @_ZN7rocksdb9EncodeKeyEPNSt7__cxx1112basic_stringIcSt11char_traitsIcESaIcEEERKNS_5SliceE(ptr noundef nonnull %tmp, ptr noundef nonnull align 8 dereferenceable(16) %end_ikey)
          to label %invoke.cont5 unwind label %lpad.loopexit.split-lp.loopexit.split-lp

invoke.cont5:                                     ; preds = %invoke.cont2
  call void @llvm.lifetime.start.p0(i64 16, ptr nonnull %key_decoded.i5)
  %12 = load ptr, ptr %head_.i, align 8
  %13 = load atomic i32, ptr %max_height_.i.i monotonic, align 8
  %14 = load ptr, ptr %compare_.i, align 8
  %vtable.i10 = load ptr, ptr %14, align 8
  %15 = load ptr, ptr %vtable.i10, align 8
  %call2.i41 = invoke { ptr, i64 } %15(ptr noundef nonnull align 8 dereferenceable(8) %14, ptr noundef %call6)
          to label %call2.i.noexc40 unwind label %lpad.loopexit.split-lp.loopexit.split-lp

call2.i.noexc40:                                  ; preds = %invoke.cont5
  %sub.i8 = add nsw i32 %13, -1
  %16 = extractvalue { ptr, i64 } %call2.i41, 0
  store ptr %16, ptr %key_decoded.i5, align 8
  %17 = getelementptr inbounds i8, ptr %key_decoded.i5, i64 8
  %18 = extractvalue { ptr, i64 } %call2.i41, 1
  store i64 %18, ptr %17, align 8
  br label %while.body.i12.outer

while.body.i12.outer:                             ; preds = %if.else16.i28, %call2.i.noexc40
  %x.0.i13.ph = phi ptr [ %atomic-temp.i.0.i.i.i19, %if.else16.i28 ], [ %12, %call2.i.noexc40 ]
  %level.0.i14.ph = phi i32 [ %level.0.i14, %if.else16.i28 ], [ %sub.i8, %call2.i.noexc40 ]
  %count.0.i15.ph = phi i64 [ %inc.i29, %if.else16.i28 ], [ 0, %call2.i.noexc40 ]
  br label %while.body.i12

while.body.i12:                                   ; preds = %while.body.i12.outer, %if.else.i36
  %level.0.i14 = phi i32 [ %dec.i39, %if.else.i36 ], [ %level.0.i14.ph, %while.body.i12.outer ]
  %count.0.i15 = phi i64 [ %mul.i38, %if.else.i36 ], [ %count.0.i15.ph, %while.body.i12.outer ]
  %idx.ext.i.i16 = sext i32 %level.0.i14 to i64
  %idx.neg.i.i17 = sub nsw i64 0, %idx.ext.i.i16
  %add.ptr.i.i18 = getelementptr inbounds %"struct.std::atomic.29", ptr %x.0.i13.ph, i64 %idx.neg.i.i17
  %19 = load atomic i64, ptr %add.ptr.i.i18 acquire, align 8
  %atomic-temp.i.0.i.i.i19 = inttoptr i64 %19 to ptr
  %cond.i20 = icmp eq i64 %19, 0
  br i1 %cond.i20, label %if.then12.i34, label %if.then.i21

if.then.i21:                                      ; preds = %while.body.i12
  %add.ptr.i12.i22 = getelementptr inbounds %"struct.std::atomic.29", ptr %atomic-temp.i.0.i.i.i19, i64 %idx.neg.i.i17
  %20 = load atomic i64, ptr %add.ptr.i12.i22 acquire, align 8
  %atomic-temp.i.0.i.i13.i23 = inttoptr i64 %20 to ptr
  call void @llvm.prefetch.p0(ptr %atomic-temp.i.0.i.i13.i23, i32 0, i32 1, i32 1)
  %21 = load ptr, ptr %compare_.i, align 8
  %arrayidx.i.i24 = getelementptr inbounds i8, ptr %atomic-temp.i.0.i.i.i19, i64 8
  %vtable8.i25 = load ptr, ptr %21, align 8
  %vfn9.i26 = getelementptr inbounds i8, ptr %vtable8.i25, i64 16
  %22 = load ptr, ptr %vfn9.i26, align 8
  %call10.i43 = invoke noundef i32 %22(ptr noundef nonnull align 8 dereferenceable(8) %21, ptr noundef nonnull %arrayidx.i.i24, ptr noundef nonnull align 8 dereferenceable(16) %key_decoded.i5)
          to label %call10.i.noexc42 unwind label %lpad.loopexit

call10.i.noexc42:                                 ; preds = %if.then.i21
  %cmp11.i27 = icmp sgt i32 %call10.i43, -1
  br i1 %cmp11.i27, label %if.then12.i34, label %if.else16.i28

if.then12.i34:                                    ; preds = %call10.i.noexc42, %while.body.i12
  %cmp13.i35 = icmp eq i32 %level.0.i14, 0
  br i1 %cmp13.i35, label %invoke.cont7, label %if.else.i36

if.else.i36:                                      ; preds = %if.then12.i34
  %23 = load i16, ptr %kBranching_.i, align 2
  %conv.i37 = zext i16 %23 to i64
  %mul.i38 = mul i64 %count.0.i15, %conv.i37
  %dec.i39 = add nsw i32 %level.0.i14, -1
  br label %while.body.i12, !llvm.loop !12

if.else16.i28:                                    ; preds = %call10.i.noexc42
  %inc.i29 = add i64 %count.0.i15, 1
  br label %while.body.i12.outer, !llvm.loop !12

invoke.cont7:                                     ; preds = %if.then12.i34
  call void @llvm.lifetime.end.p0(i64 16, ptr nonnull %key_decoded.i5)
  %cond = call i64 @llvm.usub.sat.i64(i64 %count.0.i15, i64 %count.0.i)
  call void @_ZNSt7__cxx1112basic_stringIcSt11char_traitsIcESaIcEED1Ev(ptr noundef nonnull align 8 dereferenceable(32) %tmp) #23
  ret i64 %cond

lpad.loopexit:                                    ; preds = %if.then.i21
  %lpad.loopexit45 = landingpad { ptr, i32 }
          cleanup
  br label %lpad

lpad.loopexit.split-lp.loopexit:                  ; preds = %if.then.i
  %lpad.loopexit47 = landingpad { ptr, i32 }
          cleanup
  br label %lpad

lpad.loopexit.split-lp.loopexit.split-lp:         ; preds = %invoke.cont5, %invoke.cont, %invoke.cont2, %entry
  %lpad.loopexit.split-lp48 = landingpad { ptr, i32 }
          cleanup
  br label %lpad

lpad:                                             ; preds = %lpad.loopexit.split-lp.loopexit, %lpad.loopexit.split-lp.loopexit.split-lp, %lpad.loopexit
  %lpad.phi = phi { ptr, i32 } [ %lpad.loopexit45, %lpad.loopexit ], [ %lpad.loopexit47, %lpad.loopexit.split-lp.loopexit ], [ %lpad.loopexit.split-lp48, %lpad.loopexit.split-lp.loopexit.split-lp ]
  call void @_ZNSt7__cxx1112basic_stringIcSt11char_traitsIcESaIcEED1Ev(ptr noundef nonnull align 8 dereferenceable(32) %tmp) #23
  resume { ptr, i32 } %lpad.phi
}